target datalayout = "e-m:e-p270:32:32-p271:32:32-p272:64:64-i64:64-i128:128-f80:128-n8:16:32:64-S128"
target triple = "x86_64-pc-linux-gnu"

%struct.DdManager = type { %struct.DdNode, ptr, ptr, ptr, ptr, ptr, ptr, ptr, i32, i32, double, double, double, i32, i32, i32, i32, i32, i32, ptr, ptr, %struct.DdSubtable, i32, i32, i32, i32, i32, i32, i32, double, i32, i32, i32, ptr, i64, double, i32, ptr, ptr, ptr, ptr, ptr, ptr, ptr, i32, ptr, ptr, ptr, ptr, ptr, ptr, i32, i32, i32, double, i32, i32, i32, i32, double, double, i32, i32, i32, i32, i32, i32, i32, i32, i32, ptr, ptr, i32, i32, i32, i32, i32, i32, ptr, ptr, ptr, ptr, ptr, ptr, ptr, ptr, i32, i64, i64, i64, i32, i64, i64, double, double, double, double, double, double, i32, ptr, ptr, i64 }
%struct.DdNode = type { i32, i32, ptr, %union.anon, i64 }
%union.anon = type { %struct.DdChildren }
%struct.DdChildren = type { ptr, ptr }
%struct.DdSubtable = type { ptr, i32, i32, i32, i32, i32, i32, i32, i32, i32, i32, i32 }

; Function Attrs: nounwind uwtable
define ptr @Extra_bddSupportNegativeCube(ptr noundef %0, ptr noundef %1) #0 {
  %3 = alloca ptr, align 8
  %4 = alloca ptr, align 8
  %5 = alloca ptr, align 8
  %6 = alloca ptr, align 8
  %7 = alloca ptr, align 8
  %8 = alloca ptr, align 8
  %9 = alloca ptr, align 8
  %10 = alloca i32, align 4
  %11 = alloca i32, align 4
  %12 = alloca i32, align 4
  %13 = alloca i32, align 4
  store ptr %0, ptr %4, align 8, !tbaa !3
  store ptr %1, ptr %5, align 8, !tbaa !8
  call void @llvm.lifetime.start.p0(i64 8, ptr %6) #10
  call void @llvm.lifetime.start.p0(i64 8, ptr %7) #10
  call void @llvm.lifetime.start.p0(i64 8, ptr %8) #10
  call void @llvm.lifetime.start.p0(i64 8, ptr %9) #10
  call void @llvm.lifetime.start.p0(i64 4, ptr %10) #10
  call void @llvm.lifetime.start.p0(i64 4, ptr %11) #10
  call void @llvm.lifetime.start.p0(i64 4, ptr %12) #10
  %14 = load ptr, ptr %4, align 8, !tbaa !3
  %15 = getelementptr inbounds nuw %struct.DdManager, ptr %14, i32 0, i32 16
  %16 = load i32, ptr %15, align 4, !tbaa !58
  %17 = load ptr, ptr %4, align 8, !tbaa !3
  %18 = getelementptr inbounds nuw %struct.DdManager, ptr %17, i32 0, i32 15
  %19 = load i32, ptr %18, align 8, !tbaa !36
  %20 = icmp sgt i32 %16, %19
  br i1 %20, label %21, label %25

21:                                               ; preds = %2
  %22 = load ptr, ptr %4, align 8, !tbaa !3
  %23 = getelementptr inbounds nuw %struct.DdManager, ptr %22, i32 0, i32 16
  %24 = load i32, ptr %23, align 4, !tbaa !58
  br label %29

25:                                               ; preds = %2
  %26 = load ptr, ptr %4, align 8, !tbaa !3
  %27 = getelementptr inbounds nuw %struct.DdManager, ptr %26, i32 0, i32 15
  %28 = load i32, ptr %27, align 8, !tbaa !36
  br label %29

29:                                               ; preds = %25, %21
  %30 = phi i32 [ %24, %21 ], [ %28, %25 ]
  store i32 %30, ptr %12, align 4, !tbaa !37
  %31 = load i32, ptr %12, align 4, !tbaa !37
  %32 = sext i32 %31 to i64
  %33 = mul i64 4, %32
  %34 = call noalias ptr @malloc(i64 noundef %33) #11
  store ptr %34, ptr %6, align 8, !tbaa !10
  %35 = load ptr, ptr %6, align 8, !tbaa !10
  %36 = icmp eq ptr %35, null
  br i1 %36, label %37, label %40

37:                                               ; preds = %29
  %38 = load ptr, ptr %4, align 8, !tbaa !3
  %39 = getelementptr inbounds nuw %struct.DdManager, ptr %38, i32 0, i32 86
  store i32 1, ptr %39, align 8, !tbaa !68
  store ptr null, ptr %3, align 8
  store i32 1, ptr %13, align 4
  br label %182

40:                                               ; preds = %29
  store i32 0, ptr %10, align 4, !tbaa !37
  br label %41

41:                                               ; preds = %50, %40
  %42 = load i32, ptr %10, align 4, !tbaa !37
  %43 = load i32, ptr %12, align 4, !tbaa !37
  %44 = icmp slt i32 %42, %43
  br i1 %44, label %45, label %53

45:                                               ; preds = %41
  %46 = load ptr, ptr %6, align 8, !tbaa !10
  %47 = load i32, ptr %10, align 4, !tbaa !37
  %48 = sext i32 %47 to i64
  %49 = getelementptr inbounds i32, ptr %46, i64 %48
  store i32 0, ptr %49, align 4, !tbaa !37
  br label %50

50:                                               ; preds = %45
  %51 = load i32, ptr %10, align 4, !tbaa !37
  %52 = add nsw i32 %51, 1
  store i32 %52, ptr %10, align 4, !tbaa !37
  br label %41, !llvm.loop !69

53:                                               ; preds = %41
  %54 = load ptr, ptr %5, align 8, !tbaa !8
  %55 = ptrtoint ptr %54 to i64
  %56 = and i64 %55, -2
  %57 = inttoptr i64 %56 to ptr
  %58 = load ptr, ptr %6, align 8, !tbaa !10
  call void @ddSupportStep2(ptr noundef %57, ptr noundef %58)
  %59 = load ptr, ptr %5, align 8, !tbaa !8
  %60 = ptrtoint ptr %59 to i64
  %61 = and i64 %60, -2
  %62 = inttoptr i64 %61 to ptr
  call void @ddClearFlag2(ptr noundef %62)
  br label %63

63:                                               ; preds = %158, %53
  %64 = load ptr, ptr %4, align 8, !tbaa !3
  %65 = getelementptr inbounds nuw %struct.DdManager, ptr %64, i32 0, i32 55
  store i32 0, ptr %65, align 8, !tbaa !12
  %66 = load ptr, ptr %4, align 8, !tbaa !3
  %67 = getelementptr inbounds nuw %struct.DdManager, ptr %66, i32 0, i32 1
  %68 = load ptr, ptr %67, align 8, !tbaa !41
  store ptr %68, ptr %7, align 8, !tbaa !8
  %69 = load ptr, ptr %7, align 8, !tbaa !8
  %70 = ptrtoint ptr %69 to i64
  %71 = and i64 %70, -2
  %72 = inttoptr i64 %71 to ptr
  %73 = getelementptr inbounds nuw %struct.DdNode, ptr %72, i32 0, i32 1
  %74 = load i32, ptr %73, align 4, !tbaa !34
  %75 = add i32 %74, 1
  store i32 %75, ptr %73, align 4, !tbaa !34
  %76 = load i32, ptr %12, align 4, !tbaa !37
  %77 = sub nsw i32 %76, 1
  store i32 %77, ptr %11, align 4, !tbaa !37
  br label %78

78:                                               ; preds = %154, %63
  %79 = load i32, ptr %11, align 4, !tbaa !37
  %80 = icmp sge i32 %79, 0
  br i1 %80, label %81, label %157

81:                                               ; preds = %78
  %82 = load i32, ptr %11, align 4, !tbaa !37
  %83 = load ptr, ptr %4, align 8, !tbaa !3
  %84 = getelementptr inbounds nuw %struct.DdManager, ptr %83, i32 0, i32 15
  %85 = load i32, ptr %84, align 8, !tbaa !36
  %86 = icmp sge i32 %82, %85
  br i1 %86, label %87, label %89

87:                                               ; preds = %81
  %88 = load i32, ptr %11, align 4, !tbaa !37
  br label %97

89:                                               ; preds = %81
  %90 = load ptr, ptr %4, align 8, !tbaa !3
  %91 = getelementptr inbounds nuw %struct.DdManager, ptr %90, i32 0, i32 39
  %92 = load ptr, ptr %91, align 8, !tbaa !38
  %93 = load i32, ptr %11, align 4, !tbaa !37
  %94 = sext i32 %93 to i64
  %95 = getelementptr inbounds i32, ptr %92, i64 %94
  %96 = load i32, ptr %95, align 4, !tbaa !37
  br label %97

97:                                               ; preds = %89, %87
  %98 = phi i32 [ %88, %87 ], [ %96, %89 ]
  store i32 %98, ptr %10, align 4, !tbaa !37
  %99 = load ptr, ptr %6, align 8, !tbaa !10
  %100 = load i32, ptr %10, align 4, !tbaa !37
  %101 = sext i32 %100 to i64
  %102 = getelementptr inbounds i32, ptr %99, i64 %101
  %103 = load i32, ptr %102, align 4, !tbaa !37
  %104 = icmp eq i32 %103, 1
  br i1 %104, label %105, label %153

105:                                              ; preds = %97
  %106 = load ptr, ptr %4, align 8, !tbaa !3
  %107 = load i32, ptr %10, align 4, !tbaa !37
  %108 = load ptr, ptr %4, align 8, !tbaa !3
  %109 = getelementptr inbounds nuw %struct.DdManager, ptr %108, i32 0, i32 1
  %110 = load ptr, ptr %109, align 8, !tbaa !41
  %111 = load ptr, ptr %4, align 8, !tbaa !3
  %112 = getelementptr inbounds nuw %struct.DdManager, ptr %111, i32 0, i32 1
  %113 = load ptr, ptr %112, align 8, !tbaa !41
  %114 = ptrtoint ptr %113 to i64
  %115 = xor i64 %114, 1
  %116 = inttoptr i64 %115 to ptr
  %117 = call ptr @cuddUniqueInter(ptr noundef %106, i32 noundef %107, ptr noundef %110, ptr noundef %116)
  store ptr %117, ptr %9, align 8, !tbaa !8
  %118 = load ptr, ptr %9, align 8, !tbaa !8
  %119 = ptrtoint ptr %118 to i64
  %120 = xor i64 %119, 1
  %121 = inttoptr i64 %120 to ptr
  store ptr %121, ptr %9, align 8, !tbaa !8
  %122 = load ptr, ptr %9, align 8, !tbaa !8
  %123 = ptrtoint ptr %122 to i64
  %124 = and i64 %123, -2
  %125 = inttoptr i64 %124 to ptr
  %126 = getelementptr inbounds nuw %struct.DdNode, ptr %125, i32 0, i32 1
  %127 = load i32, ptr %126, align 4, !tbaa !34
  %128 = add i32 %127, 1
  store i32 %128, ptr %126, align 4, !tbaa !34
  %129 = load ptr, ptr %4, align 8, !tbaa !3
  %130 = load ptr, ptr %7, align 8, !tbaa !8
  %131 = load ptr, ptr %9, align 8, !tbaa !8
  %132 = call ptr @cuddBddAndRecur(ptr noundef %129, ptr noundef %130, ptr noundef %131)
  store ptr %132, ptr %8, align 8, !tbaa !8
  %133 = load ptr, ptr %8, align 8, !tbaa !8
  %134 = icmp eq ptr %133, null
  br i1 %134, label %135, label %140

135:                                              ; preds = %105
  %136 = load ptr, ptr %4, align 8, !tbaa !3
  %137 = load ptr, ptr %7, align 8, !tbaa !8
  call void @Cudd_RecursiveDeref(ptr noundef %136, ptr noundef %137)
  %138 = load ptr, ptr %4, align 8, !tbaa !3
  %139 = load ptr, ptr %9, align 8, !tbaa !8
  call void @Cudd_RecursiveDeref(ptr noundef %138, ptr noundef %139)
  store ptr null, ptr %7, align 8, !tbaa !8
  br label %157

140:                                              ; preds = %105
  %141 = load ptr, ptr %8, align 8, !tbaa !8
  %142 = ptrtoint ptr %141 to i64
  %143 = and i64 %142, -2
  %144 = inttoptr i64 %143 to ptr
  %145 = getelementptr inbounds nuw %struct.DdNode, ptr %144, i32 0, i32 1
  %146 = load i32, ptr %145, align 4, !tbaa !34
  %147 = add i32 %146, 1
  store i32 %147, ptr %145, align 4, !tbaa !34
  %148 = load ptr, ptr %4, align 8, !tbaa !3
  %149 = load ptr, ptr %7, align 8, !tbaa !8
  call void @Cudd_RecursiveDeref(ptr noundef %148, ptr noundef %149)
  %150 = load ptr, ptr %4, align 8, !tbaa !3
  %151 = load ptr, ptr %9, align 8, !tbaa !8
  call void @Cudd_RecursiveDeref(ptr noundef %150, ptr noundef %151)
  %152 = load ptr, ptr %8, align 8, !tbaa !8
  store ptr %152, ptr %7, align 8, !tbaa !8
  br label %153

153:                                              ; preds = %140, %97
  br label %154

154:                                              ; preds = %153
  %155 = load i32, ptr %11, align 4, !tbaa !37
  %156 = add nsw i32 %155, -1
  store i32 %156, ptr %11, align 4, !tbaa !37
  br label %78, !llvm.loop !70

157:                                              ; preds = %135, %78
  br label %158

158:                                              ; preds = %157
  %159 = load ptr, ptr %4, align 8, !tbaa !3
  %160 = getelementptr inbounds nuw %struct.DdManager, ptr %159, i32 0, i32 55
  %161 = load i32, ptr %160, align 8, !tbaa !12
  %162 = icmp eq i32 %161, 1
  br i1 %162, label %63, label %163, !llvm.loop !71

163:                                              ; preds = %158
  %164 = load ptr, ptr %6, align 8, !tbaa !10
  %165 = icmp ne ptr %164, null
  br i1 %165, label %166, label %168

166:                                              ; preds = %163
  %167 = load ptr, ptr %6, align 8, !tbaa !10
  call void @free(ptr noundef %167) #10
  store ptr null, ptr %6, align 8, !tbaa !10
  br label %169

168:                                              ; preds = %163
  br label %169

169:                                              ; preds = %168, %166
  %170 = load ptr, ptr %7, align 8, !tbaa !8
  %171 = icmp ne ptr %170, null
  br i1 %171, label %172, label %180

172:                                              ; preds = %169
  %173 = load ptr, ptr %7, align 8, !tbaa !8
  %174 = ptrtoint ptr %173 to i64
  %175 = and i64 %174, -2
  %176 = inttoptr i64 %175 to ptr
  %177 = getelementptr inbounds nuw %struct.DdNode, ptr %176, i32 0, i32 1
  %178 = load i32, ptr %177, align 4, !tbaa !34
  %179 = add i32 %178, -1
  store i32 %179, ptr %177, align 4, !tbaa !34
  br label %180

180:                                              ; preds = %172, %169
  %181 = load ptr, ptr %7, align 8, !tbaa !8
  store ptr %181, ptr %3, align 8
  store i32 1, ptr %13, align 4
  br label %182

182:                                              ; preds = %180, %37
  call void @llvm.lifetime.end.p0(i64 4, ptr %12) #10
  call void @llvm.lifetime.end.p0(i64 4, ptr %11) #10
  call void @llvm.lifetime.end.p0(i64 4, ptr %10) #10
  call void @llvm.lifetime.end.p0(i64 8, ptr %9) #10
  call void @llvm.lifetime.end.p0(i64 8, ptr %8) #10
  call void @llvm.lifetime.end.p0(i64 8, ptr %7) #10
  call void @llvm.lifetime.end.p0(i64 8, ptr %6) #10
  %183 = load ptr, ptr %3, align 8
  ret ptr %183
}