; Function Attrs: nounwind uwtable
define ptr @Extra_bddSupportNegativeCube(ptr noundef %0, ptr noundef %1) local_unnamed_addr #0 {
  %3 = getelementptr inbounds nuw i8, ptr %0, i64 140
  %4 = load i32, ptr %3, align 4, !tbaa !49
  %5 = getelementptr inbounds nuw i8, ptr %0, i64 136
  %6 = load i32, ptr %5, align 8, !tbaa !29
  %. = tail call i32 @llvm.smax.i32(i32 %4, i32 %6)
  %7 = sext i32 %. to i64
  %8 = shl nsw i64 %7, 2
  %9 = tail call noalias ptr @malloc(i64 noundef %8) #20
  %10 = icmp eq ptr %9, null
  br i1 %10, label %14, label %.preheader

.preheader:                                       ; preds = %2
  %11 = icmp sgt i32 %., 0
  br i1 %11, label %.lr.ph.preheader, label %._crit_edge

.lr.ph.preheader:                                 ; preds = %.preheader
  %12 = zext nneg i32 %. to i64
  %13 = shl nuw nsw i64 %12, 2
  tail call void @llvm.memset.p0.i64(ptr nonnull align 4 %9, i8 0, i64 %13, i1 false), !tbaa !31
  br label %._crit_edge

14:                                               ; preds = %2
  %15 = getelementptr inbounds nuw i8, ptr %0, i64 624
  store i32 1, ptr %15, align 8, !tbaa !56
  br label %86

._crit_edge:                                      ; preds = %.lr.ph.preheader, %.preheader
  %16 = ptrtoint ptr %1 to i64
  %17 = and i64 %16, -2
  %18 = inttoptr i64 %17 to ptr
  tail call void @ddSupportStep2(ptr noundef %18, ptr noundef nonnull %9)
  tail call void @ddClearFlag2(ptr noundef %18)
  %19 = getelementptr inbounds nuw i8, ptr %0, i64 448
  %20 = getelementptr inbounds nuw i8, ptr %0, i64 40
  %21 = getelementptr inbounds nuw i8, ptr %0, i64 328
  br i1 %11, label %.lr.ph69.us.preheader, label %.loopexit

.lr.ph69.us.preheader:                            ; preds = %._crit_edge
  %22 = zext nneg i32 %. to i64
  br label %.lr.ph69.us

.lr.ph69.us:                                      ; preds = %.lr.ph69.us.preheader, %..loopexit_crit_edge.us
  store i32 0, ptr %19, align 8, !tbaa !3
  %23 = load ptr, ptr %20, align 8, !tbaa !34
  %24 = ptrtoint ptr %23 to i64
  %25 = and i64 %24, -2
  %26 = inttoptr i64 %25 to ptr
  %27 = getelementptr inbounds nuw i8, ptr %26, i64 4
  %28 = load i32, ptr %27, align 4, !tbaa !24
  %29 = add i32 %28, 1
  store i32 %29, ptr %27, align 4, !tbaa !24
  br label %30

30:                                               ; preds = %.lr.ph69.us, %67
  %indvars.iv = phi i64 [ %22, %.lr.ph69.us ], [ %indvars.iv.next, %67 ]
  %.05665.us = phi ptr [ %23, %.lr.ph69.us ], [ %.1.us, %67 ]
  %indvars.iv.next = add nsw i64 %indvars.iv, -1
  %31 = load i32, ptr %5, align 8, !tbaa !29
  %32 = sext i32 %31 to i64
  %.not.not.us = icmp sgt i64 %indvars.iv, %32
  %33 = trunc nuw nsw i64 %indvars.iv.next to i32
  br i1 %.not.not.us, label %38, label %34

34:                                               ; preds = %30
  %35 = load ptr, ptr %21, align 8, !tbaa !30
  %36 = getelementptr inbounds nuw i32, ptr %35, i64 %indvars.iv.next
  %37 = load i32, ptr %36, align 4, !tbaa !31
  br label %38

38:                                               ; preds = %34, %30
  %39 = phi i32 [ %37, %34 ], [ %33, %30 ]
  %40 = sext i32 %39 to i64
  %41 = getelementptr inbounds i32, ptr %9, i64 %40
  %42 = load i32, ptr %41, align 4, !tbaa !31
  %43 = icmp eq i32 %42, 1
  br i1 %43, label %44, label %67

44:                                               ; preds = %38
  %45 = load ptr, ptr %20, align 8, !tbaa !34
  %46 = ptrtoint ptr %45 to i64
  %47 = xor i64 %46, 1
  %48 = inttoptr i64 %47 to ptr
  %49 = tail call ptr @cuddUniqueInter(ptr noundef nonnull %0, i32 noundef %39, ptr noundef %45, ptr noundef %48) #19
  %50 = ptrtoint ptr %49 to i64
  %51 = xor i64 %50, 1
  %52 = inttoptr i64 %51 to ptr
  %53 = and i64 %50, -2
  %54 = inttoptr i64 %53 to ptr
  %55 = getelementptr inbounds nuw i8, ptr %54, i64 4
  %56 = load i32, ptr %55, align 4, !tbaa !24
  %57 = add i32 %56, 1
  store i32 %57, ptr %55, align 4, !tbaa !24
  %58 = tail call ptr @cuddBddAndRecur(ptr noundef nonnull %0, ptr noundef %.05665.us, ptr noundef %52) #19
  %59 = icmp eq ptr %58, null
  br i1 %59, label %69, label %60

60:                                               ; preds = %44
  %61 = ptrtoint ptr %58 to i64
  %62 = and i64 %61, -2
  %63 = inttoptr i64 %62 to ptr
  %64 = getelementptr inbounds nuw i8, ptr %63, i64 4
  %65 = load i32, ptr %64, align 4, !tbaa !24
  %66 = add i32 %65, 1
  store i32 %66, ptr %64, align 4, !tbaa !24
  tail call void @Cudd_RecursiveDeref(ptr noundef nonnull %0, ptr noundef %.05665.us) #19
  tail call void @Cudd_RecursiveDeref(ptr noundef nonnull %0, ptr noundef %52) #19
  br label %67

67:                                               ; preds = %60, %38
  %.1.us = phi ptr [ %58, %60 ], [ %.05665.us, %38 ]
  %68 = icmp sgt i64 %indvars.iv, 1
  br i1 %68, label %30, label %..loopexit_crit_edge.us, !llvm.loop !57

69:                                               ; preds = %44
  tail call void @Cudd_RecursiveDeref(ptr noundef nonnull %0, ptr noundef %.05665.us) #19
  tail call void @Cudd_RecursiveDeref(ptr noundef nonnull %0, ptr noundef %52) #19
  br label %..loopexit_crit_edge.us

..loopexit_crit_edge.us:                          ; preds = %67, %69
  %.2.us = phi ptr [ null, %69 ], [ %.1.us, %67 ]
  %70 = load i32, ptr %19, align 8, !tbaa !3
  %71 = icmp eq i32 %70, 1
  br i1 %71, label %.lr.ph69.us, label %.split71.us, !llvm.loop !58

.loopexit:                                        ; preds = %._crit_edge
  %72 = load ptr, ptr %20, align 8, !tbaa !34
  %73 = ptrtoint ptr %72 to i64
  %74 = and i64 %73, -2
  %75 = inttoptr i64 %74 to ptr
  %76 = getelementptr inbounds nuw i8, ptr %75, i64 4
  %77 = load i32, ptr %76, align 4, !tbaa !24
  %78 = add i32 %77, 1
  store i32 %78, ptr %76, align 4, !tbaa !24
  store i32 0, ptr %19, align 8, !tbaa !3
  br label %.split71.us

.split71.us:                                      ; preds = %..loopexit_crit_edge.us, %.loopexit
  %.us-phi = phi ptr [ %72, %.loopexit ], [ %.2.us, %..loopexit_crit_edge.us ]
  tail call void @free(ptr noundef nonnull %9) #19
  %.not = icmp eq ptr %.us-phi, null
  br i1 %.not, label %86, label %79

79:                                               ; preds = %.split71.us
  %80 = ptrtoint ptr %.us-phi to i64
  %81 = and i64 %80, -2
  %82 = inttoptr i64 %81 to ptr
  %83 = getelementptr inbounds nuw i8, ptr %82, i64 4
  %84 = load i32, ptr %83, align 4, !tbaa !24
  %85 = add i32 %84, -1
  store i32 %85, ptr %83, align 4, !tbaa !24
  br label %86

86:                                               ; preds = %.split71.us, %79, %14
  %.0 = phi ptr [ null, %14 ], [ %.us-phi, %79 ], [ null, %.split71.us ]
  ret ptr %.0
}